target datalayout = "e-m:e-p270:32:32-p271:32:32-p272:64:64-i64:64-i128:128-f80:128-n8:16:32:64-S128"
target triple = "x86_64-pc-linux-gnu"

%"struct.cv::SparseMat::Hdr" = type { i32, i32, i32, i64, i64, i64, %"class.std::vector", %"class.std::vector.0", [32 x i32] }
%"class.std::vector" = type { %"struct.std::_Vector_base" }
%"struct.std::_Vector_base" = type { %"struct.std::_Vector_base<unsigned char, std::allocator<unsigned char>>::_Vector_impl" }
%"struct.std::_Vector_base<unsigned char, std::allocator<unsigned char>>::_Vector_impl" = type { %"struct.std::_Vector_base<unsigned char, std::allocator<unsigned char>>::_Vector_impl_data" }
%"struct.std::_Vector_base<unsigned char, std::allocator<unsigned char>>::_Vector_impl_data" = type { ptr, ptr, ptr }
%"class.std::vector.0" = type { %"struct.std::_Vector_base.1" }
%"struct.std::_Vector_base.1" = type { %"struct.std::_Vector_base<unsigned long, std::allocator<unsigned long>>::_Vector_impl" }
%"struct.std::_Vector_base<unsigned long, std::allocator<unsigned long>>::_Vector_impl" = type { %"struct.std::_Vector_base<unsigned long, std::allocator<unsigned long>>::_Vector_impl_data" }
%"struct.std::_Vector_base<unsigned long, std::allocator<unsigned long>>::_Vector_impl_data" = type { ptr, ptr, ptr }
%"class.cv::SparseMat" = type { i32, ptr }

; Function Attrs: mustprogress nounwind uwtable
define void @_ZN2cv9SparseMat6addrefEv(ptr noundef nonnull align 8 dereferenceable(16) %0) #1 align 2 {
  %2 = alloca ptr, align 8
  %3 = alloca i32, align 4
  %4 = alloca i32, align 4
  store ptr %0, ptr %2, align 8, !tbaa !42
  %5 = load ptr, ptr %2, align 8
  %6 = getelementptr inbounds nuw %"class.cv::SparseMat", ptr %5, i32 0, i32 1
  %7 = load ptr, ptr %6, align 8, !tbaa !46
  %8 = icmp ne ptr %7, null
  br i1 %8, label %9, label %15

9:                                                ; preds = %1
  %10 = getelementptr inbounds nuw %"class.cv::SparseMat", ptr %5, i32 0, i32 1
  %11 = load ptr, ptr %10, align 8, !tbaa !46
  %12 = getelementptr inbounds nuw %"struct.cv::SparseMat::Hdr", ptr %11, i32 0, i32 0
  store i32 1, ptr %3, align 4, !tbaa !8
  %13 = load i32, ptr %3, align 4
  %14 = atomicrmw add ptr %12, i32 %13 acq_rel, align 8
  store i32 %14, ptr %4, align 4
  br label %15

15:                                               ; preds = %9, %1
  ret void
}

; Function Attrs: mustprogress uwtable
define void @_ZN2cv9SparseMatC2ERKS0_(ptr noundef nonnull align 8 dereferenceable(16) %0, ptr noundef nonnull align 8 dereferenceable(16) %1) unnamed_addr #0 align 2 {
  %3 = alloca ptr, align 8
  %4 = alloca ptr, align 8
  store ptr %0, ptr %3, align 8, !tbaa !42
  store ptr %1, ptr %4, align 8, !tbaa !42
  %5 = load ptr, ptr %3, align 8
  %6 = getelementptr inbounds nuw %"class.cv::SparseMat", ptr %5, i32 0, i32 0
  %7 = load ptr, ptr %4, align 8, !tbaa !42
  %8 = getelementptr inbounds nuw %"class.cv::SparseMat", ptr %7, i32 0, i32 0
  %9 = load i32, ptr %8, align 8, !tbaa !44
  store i32 %9, ptr %6, align 8, !tbaa !44
  %10 = getelementptr inbounds nuw %"class.cv::SparseMat", ptr %5, i32 0, i32 1
  %11 = load ptr, ptr %4, align 8, !tbaa !42
  %12 = getelementptr inbounds nuw %"class.cv::SparseMat", ptr %11, i32 0, i32 1
  %13 = load ptr, ptr %12, align 8, !tbaa !46
  store ptr %13, ptr %10, align 8, !tbaa !46
  call void @_ZN2cv9SparseMat6addrefEv(ptr noundef nonnull align 8 dereferenceable(16) %5)
  ret void
}