; Function Attrs: mustprogress nofree norecurse nounwind willreturn memory(readwrite, inaccessiblemem: none) uwtable
define void @_ZN2cv9SparseMatC2ERKS0_(ptr noundef nonnull writeonly align 8 captures(none) dereferenceable(16) initializes((0, 4), (8, 16)) %0, ptr noundef nonnull readonly align 8 captures(none) dereferenceable(16) %1) unnamed_addr #3 align 2 {
  %3 = load i32, ptr %1, align 8, !tbaa !33
  store i32 %3, ptr %0, align 8, !tbaa !33
  %4 = getelementptr inbounds nuw i8, ptr %0, i64 8
  %5 = getelementptr inbounds nuw i8, ptr %1, i64 8
  %6 = load ptr, ptr %5, align 8, !tbaa !36
  store ptr %6, ptr %4, align 8, !tbaa !36
  %.not.i = icmp eq ptr %6, null
  br i1 %.not.i, label %_ZN2cv9SparseMat6addrefEv.exit, label %7

7:                                                ; preds = %2
  %8 = atomicrmw add ptr %6, i32 1 acq_rel, align 8
  br label %_ZN2cv9SparseMat6addrefEv.exit

_ZN2cv9SparseMat6addrefEv.exit:                   ; preds = %2, %7
  ret void
}